; ModuleID = '11/863.c'
source_filename = "11/863.c"
target datalayout = "e-m:e-p270:32:32-p271:32:32-p272:64:64-i64:64-f80:128-n8:16:32:64-S128"
target triple = "x86_64-pc-linux-gnu"

@.str = private unnamed_addr constant [7 x i8] c"%d%d%d\00", align 1
@.str.1 = private unnamed_addr constant [3 x i8] c"%d\00", align 1

; Function Attrs: noinline nounwind uwtable
define dso_local i32 @main() #0 {
  %1 = alloca i32, align 4
  %2 = alloca i32, align 4
  %3 = alloca i32, align 4
  %4 = alloca i32, align 4
  %5 = alloca i32, align 4
  %6 = alloca i32, align 4
  store i32 0, i32* %1, align 4
  %7 = call i32 (i8*, ...) @__isoc99_scanf(i8* getelementptr inbounds ([7 x i8], [7 x i8]* @.str, i64 0, i64 0), i32* %2, i32* %3, i32* %4)
  store i32 0, i32* %6, align 4
  store i32 1, i32* %5, align 4
  br label %8

8:                                                ; preds = %44, %0
  %9 = load i32, i32* %5, align 4
  %10 = load i32, i32* %3, align 4
  %11 = icmp slt i32 %9, %10
  br i1 %11, label %12, label %47

12:                                               ; preds = %8
  %13 = load i32, i32* %5, align 4
  switch i32 %13, label %20 [
    i32 1, label %14
    i32 3, label %14
    i32 5, label %14
    i32 7, label %14
    i32 8, label %14
    i32 10, label %14
    i32 12, label %14
    i32 4, label %17
    i32 6, label %17
    i32 9, label %17
    i32 11, label %17
  ]

14:                                               ; preds = %12, %12, %12, %12, %12, %12, %12
  %15 = load i32, i32* %6, align 4
  %16 = add nsw i32 %15, 31
  store i32 %16, i32* %6, align 4
  br label %43

17:                                               ; preds = %12, %12, %12, %12
  %18 = load i32, i32* %6, align 4
  %19 = add nsw i32 %18, 30
  store i32 %19, i32* %6, align 4
  br label %43

20:                                               ; preds = %12
  %21 = load i32, i32* %2, align 4
  %22 = srem i32 %21, 400
  %23 = icmp eq i32 %22, 0
  br i1 %23, label %24, label %27

24:                                               ; preds = %20
  %25 = load i32, i32* %6, align 4
  %26 = add nsw i32 %25, 29
  store i32 %26, i32* %6, align 4
  br label %42

27:                                               ; preds = %20
  %28 = load i32, i32* %2, align 4
  %29 = srem i32 %28, 100
  %30 = icmp ne i32 %29, 0
  br i1 %30, label %31, label %38

31:                                               ; preds = %27
  %32 = load i32, i32* %2, align 4
  %33 = srem i32 %32, 4
  %34 = icmp eq i32 %33, 0
  br i1 %34, label %35, label %38

35:                                               ; preds = %31
  %36 = load i32, i32* %6, align 4
  %37 = add nsw i32 %36, 29
  store i32 %37, i32* %6, align 4
  br label %41

38:                                               ; preds = %31, %27
  %39 = load i32, i32* %6, align 4
  %40 = add nsw i32 %39, 28
  store i32 %40, i32* %6, align 4
  br label %41

41:                                               ; preds = %38, %35
  br label %42

42:                                               ; preds = %41, %24
  br label %43

43:                                               ; preds = %42, %17, %14
  br label %44

44:                                               ; preds = %43
  %45 = load i32, i32* %5, align 4
  %46 = add nsw i32 %45, 1
  store i32 %46, i32* %5, align 4
  br label %8

47:                                               ; preds = %8
  %48 = load i32, i32* %4, align 4
  %49 = load i32, i32* %6, align 4
  %50 = add nsw i32 %49, %48
  store i32 %50, i32* %6, align 4
  %51 = load i32, i32* %6, align 4
  %52 = call i32 (i8*, ...) @printf(i8* getelementptr inbounds ([3 x i8], [3 x i8]* @.str.1, i64 0, i64 0), i32 %51)
  %53 = load i32, i32* %1, align 4
  ret i32 %53
}

declare dso_local i32 @__isoc99_scanf(i8*, ...) #1

declare dso_local i32 @printf(i8*, ...) #1


!llvm.module.flags = !{!0}
!llvm.ident = !{!1}

!0 = !{i32 1, !"wchar_size", i32 4}
!1 = !{!"clang version 10.0.0-4ubuntu1 "}
